; Function Attrs: mustprogress nofree norecurse nosync nounwind willreturn memory(argmem: readwrite) uwtable
define internal range(i32 0, 2) i32 @fold_shortcut_dropleft(ptr noundef captures(none) %0) #5 {
  %2 = getelementptr inbounds nuw i8, ptr %0, i64 196
  %3 = load i8, ptr %2, align 4, !tbaa !28
  %4 = and i8 %3, 64
  %.not = icmp eq i8 %4, 0
  br i1 %.not, label %5, label %9

5:                                                ; preds = %1
  %6 = getelementptr inbounds nuw i8, ptr %0, i64 192
  %7 = getelementptr inbounds nuw i8, ptr %0, i64 184
  %8 = load i16, ptr %6, align 8, !tbaa !28
  store i16 %8, ptr %7, align 8, !tbaa !28
  br label %9

9:                                                ; preds = %1, %5
  %.0 = phi i32 [ 1, %5 ], [ 0, %1 ]
  ret i32 %.0
}